target datalayout = "e-m:e-p270:32:32-p271:32:32-p272:64:64-i64:64-i128:128-f80:128-n8:16:32:64-S128"
target triple = "x86_64-pc-linux-gnu"

%struct.OnigEncodingTypeST = type { ptr, ptr, i32, i32, ptr, ptr, ptr, ptr, ptr, ptr, ptr, ptr, ptr, ptr, ptr, ptr, ptr, i32, i32 }

; Function Attrs: nounwind sspstrong uwtable
define internal ptr @cp949_left_adjust_char_head(ptr noundef %0, ptr noundef %1, ptr noundef %2, ptr noundef %3) #0 {
  %5 = alloca ptr, align 8
  %6 = alloca ptr, align 8
  %7 = alloca ptr, align 8
  %8 = alloca ptr, align 8
  %9 = alloca ptr, align 8
  %10 = alloca ptr, align 8
  %11 = alloca i32, align 4
  %12 = alloca i32, align 4
  store ptr %0, ptr %6, align 8, !tbaa !13
  store ptr %1, ptr %7, align 8, !tbaa !13
  store ptr %2, ptr %8, align 8, !tbaa !13
  store ptr %3, ptr %9, align 8, !tbaa !14
  call void @llvm.lifetime.start.p0(i64 8, ptr %10) #3
  call void @llvm.lifetime.start.p0(i64 4, ptr %11) #3
  %13 = load ptr, ptr %7, align 8, !tbaa !13
  %14 = load ptr, ptr %6, align 8, !tbaa !13
  %15 = icmp ule ptr %13, %14
  br i1 %15, label %16, label %18

16:                                               ; preds = %4
  %17 = load ptr, ptr %7, align 8, !tbaa !13
  store ptr %17, ptr %5, align 8
  store i32 1, ptr %12, align 4
  br label %91

18:                                               ; preds = %4
  %19 = load ptr, ptr %7, align 8, !tbaa !13
  store ptr %19, ptr %10, align 8, !tbaa !13
  %20 = load ptr, ptr %10, align 8, !tbaa !13
  %21 = load i8, ptr %20, align 1, !tbaa !16
  %22 = zext i8 %21 to i64
  %23 = getelementptr inbounds nuw [256 x i8], ptr @CP949_CAN_BE_TRAIL_TABLE, i64 0, i64 %22
  %24 = load i8, ptr %23, align 1, !tbaa !16
  %25 = icmp ne i8 %24, 0
  br i1 %25, label %26, label %44

26:                                               ; preds = %18
  br label %27

27:                                               ; preds = %42, %26
  %28 = load ptr, ptr %10, align 8, !tbaa !13
  %29 = load ptr, ptr %6, align 8, !tbaa !13
  %30 = icmp ugt ptr %28, %29
  br i1 %30, label %31, label %43

31:                                               ; preds = %27
  %32 = load ptr, ptr %10, align 8, !tbaa !13
  %33 = getelementptr inbounds i8, ptr %32, i32 -1
  store ptr %33, ptr %10, align 8, !tbaa !13
  %34 = load i8, ptr %33, align 1, !tbaa !16
  %35 = zext i8 %34 to i64
  %36 = getelementptr inbounds nuw [256 x i32], ptr @EncLen_CP949, i64 0, i64 %35
  %37 = load i32, ptr %36, align 4, !tbaa !17
  %38 = icmp sgt i32 %37, 1
  br i1 %38, label %42, label %39

39:                                               ; preds = %31
  %40 = load ptr, ptr %10, align 8, !tbaa !13
  %41 = getelementptr inbounds nuw i8, ptr %40, i32 1
  store ptr %41, ptr %10, align 8, !tbaa !13
  br label %43

42:                                               ; preds = %31
  br label %27, !llvm.loop !20

43:                                               ; preds = %39, %27
  br label %44

44:                                               ; preds = %43, %18
  %45 = load ptr, ptr %9, align 8, !tbaa !14
  %46 = getelementptr inbounds nuw %struct.OnigEncodingTypeST, ptr %45, i32 0, i32 2
  %47 = load i32, ptr %46, align 8, !tbaa !22
  %48 = load ptr, ptr %9, align 8, !tbaa !14
  %49 = getelementptr inbounds nuw %struct.OnigEncodingTypeST, ptr %48, i32 0, i32 3
  %50 = load i32, ptr %49, align 4, !tbaa !23
  %51 = icmp eq i32 %47, %50
  br i1 %51, label %52, label %63

52:                                               ; preds = %44
  %53 = load ptr, ptr %10, align 8, !tbaa !13
  %54 = load ptr, ptr %8, align 8, !tbaa !13
  %55 = icmp ult ptr %53, %54
  br i1 %55, label %56, label %60

56:                                               ; preds = %52
  %57 = load ptr, ptr %9, align 8, !tbaa !14
  %58 = getelementptr inbounds nuw %struct.OnigEncodingTypeST, ptr %57, i32 0, i32 3
  %59 = load i32, ptr %58, align 4, !tbaa !23
  br label %61

60:                                               ; preds = %52
  br label %61

61:                                               ; preds = %60, %56
  %62 = phi i32 [ %59, %56 ], [ 0, %60 ]
  br label %68

63:                                               ; preds = %44
  %64 = load ptr, ptr %10, align 8, !tbaa !13
  %65 = load ptr, ptr %8, align 8, !tbaa !13
  %66 = load ptr, ptr %9, align 8, !tbaa !14
  %67 = call i32 @onigenc_mbclen(ptr noundef %64, ptr noundef %65, ptr noundef %66)
  br label %68

68:                                               ; preds = %63, %61
  %69 = phi i32 [ %62, %61 ], [ %67, %63 ]
  store i32 %69, ptr %11, align 4, !tbaa !17
  %70 = load ptr, ptr %10, align 8, !tbaa !13
  %71 = load i32, ptr %11, align 4, !tbaa !17
  %72 = sext i32 %71 to i64
  %73 = getelementptr inbounds i8, ptr %70, i64 %72
  %74 = load ptr, ptr %7, align 8, !tbaa !13
  %75 = icmp ugt ptr %73, %74
  br i1 %75, label %76, label %78

76:                                               ; preds = %68
  %77 = load ptr, ptr %10, align 8, !tbaa !13
  store ptr %77, ptr %5, align 8
  store i32 1, ptr %12, align 4
  br label %91

78:                                               ; preds = %68
  %79 = load i32, ptr %11, align 4, !tbaa !17
  %80 = load ptr, ptr %10, align 8, !tbaa !13
  %81 = sext i32 %79 to i64
  %82 = getelementptr inbounds i8, ptr %80, i64 %81
  store ptr %82, ptr %10, align 8, !tbaa !13
  %83 = load ptr, ptr %10, align 8, !tbaa !13
  %84 = load ptr, ptr %7, align 8, !tbaa !13
  %85 = load ptr, ptr %10, align 8, !tbaa !13
  %86 = ptrtoint ptr %84 to i64
  %87 = ptrtoint ptr %85 to i64
  %88 = sub i64 %86, %87
  %89 = and i64 %88, -2
  %90 = getelementptr inbounds i8, ptr %83, i64 %89
  store ptr %90, ptr %5, align 8
  store i32 1, ptr %12, align 4
  br label %91

91:                                               ; preds = %78, %76, %16
  call void @llvm.lifetime.end.p0(i64 4, ptr %11) #3
  call void @llvm.lifetime.end.p0(i64 8, ptr %10) #3
  %92 = load ptr, ptr %5, align 8
  ret ptr %92
}