; Function Attrs: nounwind sspstrong uwtable
define internal ptr @cp949_left_adjust_char_head(ptr noundef readnone captures(address) %0, ptr noundef %1, ptr noundef %2, ptr noundef %3) #0 {
  %.not = icmp ugt ptr %1, %0
  br i1 %.not, label %5, label %36

5:                                                ; preds = %4
  %6 = load i8, ptr %1, align 1, !tbaa !6
  %7 = zext i8 %6 to i64
  %8 = getelementptr inbounds nuw [256 x i8], ptr @CP949_CAN_BE_TRAIL_TABLE, i64 0, i64 %7
  %9 = load i8, ptr %8, align 1, !tbaa !6
  %.not32 = icmp eq i8 %9, 0
  br i1 %.not32, label %.loopexit, label %.preheader

.preheader:                                       ; preds = %5, %11
  %.1 = phi ptr [ %12, %11 ], [ %1, %5 ]
  %10 = icmp ugt ptr %.1, %0
  br i1 %10, label %11, label %.loopexit

11:                                               ; preds = %.preheader
  %12 = getelementptr inbounds i8, ptr %.1, i64 -1
  %13 = load i8, ptr %12, align 1, !tbaa !6
  %14 = add i8 %13, 127
  %15 = icmp ult i8 %14, 126
  br i1 %15, label %.preheader, label %.loopexit, !llvm.loop !11

.loopexit:                                        ; preds = %11, %.preheader, %5
  %.026 = phi ptr [ %1, %5 ], [ %.1, %.preheader ], [ %.1, %11 ]
  %16 = getelementptr inbounds nuw i8, ptr %3, i64 16
  %17 = load i32, ptr %16, align 8, !tbaa !13
  %18 = getelementptr inbounds nuw i8, ptr %3, i64 20
  %19 = load i32, ptr %18, align 4, !tbaa !17
  %20 = icmp eq i32 %17, %19
  br i1 %20, label %21, label %23

21:                                               ; preds = %.loopexit
  %22 = icmp ult ptr %.026, %2
  %spec.select = select i1 %22, i32 %17, i32 0
  br label %25

23:                                               ; preds = %.loopexit
  %24 = tail call i32 @onigenc_mbclen(ptr noundef nonnull %.026, ptr noundef %2, ptr noundef nonnull %3) #3
  br label %25

25:                                               ; preds = %21, %23
  %26 = phi i32 [ %24, %23 ], [ %spec.select, %21 ]
  %27 = sext i32 %26 to i64
  %28 = getelementptr inbounds i8, ptr %.026, i64 %27
  %29 = icmp ugt ptr %28, %1
  br i1 %29, label %36, label %30

30:                                               ; preds = %25
  %31 = ptrtoint ptr %1 to i64
  %32 = ptrtoint ptr %28 to i64
  %33 = sub i64 %31, %32
  %34 = and i64 %33, -2
  %35 = getelementptr inbounds i8, ptr %28, i64 %34
  br label %36

36:                                               ; preds = %25, %4, %30
  %.0 = phi ptr [ %35, %30 ], [ %1, %4 ], [ %.026, %25 ]
  ret ptr %.0
}